target datalayout = "e-m:e-p270:32:32-p271:32:32-p272:64:64-i64:64-i128:128-f80:128-n8:16:32:64-S128"
target triple = "x86_64-pc-linux-gnu"

; Function Attrs: nounwind uwtable
define internal ptr @split(ptr noundef %0, i8 noundef signext %1) #1 {
  %3 = alloca ptr, align 8
  %4 = alloca i8, align 1
  %5 = alloca ptr, align 8
  store ptr %0, ptr %3, align 8, !tbaa !28
  store i8 %1, ptr %4, align 1, !tbaa !24
  call void @llvm.lifetime.start.p0(i64 8, ptr %5) #8
  %6 = load ptr, ptr %3, align 8, !tbaa !28
  %7 = load i8, ptr %4, align 1, !tbaa !24
  %8 = sext i8 %7 to i32
  %9 = call ptr @strchr(ptr noundef %6, i32 noundef %8) #9
  store ptr %9, ptr %5, align 8, !tbaa !28
  %10 = load ptr, ptr %5, align 8, !tbaa !28
  %11 = icmp ne ptr %10, null
  br i1 %11, label %12, label %15

12:                                               ; preds = %2
  %13 = load ptr, ptr %5, align 8, !tbaa !28
  %14 = getelementptr inbounds nuw i8, ptr %13, i32 1
  store ptr %14, ptr %5, align 8, !tbaa !28
  store i8 0, ptr %13, align 1, !tbaa !24
  br label %15

15:                                               ; preds = %12, %2
  %16 = load ptr, ptr %5, align 8, !tbaa !28
  call void @llvm.lifetime.end.p0(i64 8, ptr %5) #8
  ret ptr %16
}

; Function Attrs: nounwind uwtable
define internal i32 @get_channel(ptr noundef %0, ptr noundef %1, i8 noundef signext %2) #1 {
  %4 = alloca i32, align 4
  %5 = alloca ptr, align 8
  %6 = alloca ptr, align 8
  %7 = alloca i8, align 1
  %8 = alloca ptr, align 8
  %9 = alloca i32, align 4
  store ptr %0, ptr %5, align 8, !tbaa !72
  store ptr %1, ptr %6, align 8, !tbaa !79
  store i8 %2, ptr %7, align 1, !tbaa !24
  call void @llvm.lifetime.start.p0(i64 8, ptr %8) #8
  %10 = load ptr, ptr %5, align 8, !tbaa !72
  %11 = load ptr, ptr %10, align 8, !tbaa !28
  %12 = load i8, ptr %7, align 1, !tbaa !24
  %13 = call ptr @split(ptr noundef %11, i8 noundef signext %12)
  store ptr %13, ptr %8, align 8, !tbaa !28
  %14 = load ptr, ptr %8, align 8, !tbaa !28
  %15 = icmp ne ptr %14, null
  br i1 %15, label %21, label %16

16:                                               ; preds = %3
  %17 = load i8, ptr %7, align 1, !tbaa !24
  %18 = sext i8 %17 to i32
  %19 = icmp eq i32 %18, 45
  br i1 %19, label %20, label %21

20:                                               ; preds = %16
  store i32 -22, ptr %4, align 4
  store i32 1, ptr %9, align 4
  br label %33

21:                                               ; preds = %16, %3
  %22 = load ptr, ptr %5, align 8, !tbaa !72
  %23 = load ptr, ptr %22, align 8, !tbaa !28
  %24 = call i32 @av_channel_from_string(ptr noundef %23)
  %25 = load ptr, ptr %6, align 8, !tbaa !79
  store i32 %24, ptr %25, align 4, !tbaa !25
  %26 = load ptr, ptr %6, align 8, !tbaa !79
  %27 = load i32, ptr %26, align 4, !tbaa !25
  %28 = icmp slt i32 %27, 0
  br i1 %28, label %29, label %30

29:                                               ; preds = %21
  store i32 -22, ptr %4, align 4
  store i32 1, ptr %9, align 4
  br label %33

30:                                               ; preds = %21
  %31 = load ptr, ptr %8, align 8, !tbaa !28
  %32 = load ptr, ptr %5, align 8, !tbaa !72
  store ptr %31, ptr %32, align 8, !tbaa !28
  store i32 0, ptr %4, align 4
  store i32 1, ptr %9, align 4
  br label %33

33:                                               ; preds = %30, %29, %20
  call void @llvm.lifetime.end.p0(i64 8, ptr %8) #8
  %34 = load i32, ptr %4, align 4
  ret i32 %34
}