; Function Attrs: nounwind uwtable
define internal fastcc range(i32 -22, 1) i32 @get_channel(ptr noundef nonnull captures(none) %0, ptr noundef nonnull writeonly captures(none) %1, i8 noundef signext range(i8 45, 125) %2) unnamed_addr #1 {
  %4 = load ptr, ptr %0, align 8, !tbaa !20
  %5 = zext nneg i8 %2 to i32
  %6 = tail call ptr @strchr(ptr noundef nonnull dereferenceable(1) %4, i32 noundef %5) #11
  %.not.i = icmp eq ptr %6, null
  br i1 %.not.i, label %split.exit, label %split.exit.thread

split.exit.thread:                                ; preds = %3
  %7 = getelementptr inbounds nuw i8, ptr %6, i64 1
  store i8 0, ptr %6, align 1, !tbaa !26
  %.pre = load ptr, ptr %0, align 8, !tbaa !20
  br label %9

split.exit:                                       ; preds = %3
  %8 = icmp eq i8 %2, 45
  br i1 %8, label %14, label %9

9:                                                ; preds = %split.exit.thread, %split.exit
  %10 = phi ptr [ %.pre, %split.exit.thread ], [ %4, %split.exit ]
  %.0.i13 = phi ptr [ %7, %split.exit.thread ], [ null, %split.exit ]
  %11 = tail call i32 @av_channel_from_string(ptr noundef %10) #10
  store i32 %11, ptr %1, align 4, !tbaa !30
  %12 = icmp slt i32 %11, 0
  br i1 %12, label %14, label %13

13:                                               ; preds = %9
  store ptr %.0.i13, ptr %0, align 8, !tbaa !20
  br label %14

14:                                               ; preds = %9, %split.exit, %13
  %.0 = phi i32 [ 0, %13 ], [ -22, %split.exit ], [ -22, %9 ]
  ret i32 %.0
}